target datalayout = "e-m:e-p270:32:32-p271:32:32-p272:64:64-i64:64-i128:128-f80:128-n8:16:32:64-S128"
target triple = "x86_64-pc-linux-gnu"

%union.EX_STYPE = type { ptr }
%struct.Exnode_s = type { i32, i32, i32, ptr, %union.anon.1, %union.Exdata_u, i32 }
%union.anon.1 = type { ptr }
%union.Exdata_u = type { %struct.anon.5 }
%struct.anon.5 = type { ptr, ptr, ptr, ptr }
%struct.Expr_s = type { ptr, ptr, [10 x ptr], ptr, ptr, ptr, %struct._dtdisc_s, ptr, ptr, ptr, %struct.agxbuf, %union.EX_STYPE, %struct.Exid_s, [512 x i8], ptr, i32, i32, i32, i32, i64, i32, i32 }
%struct._dtdisc_s = type { i32, i32, i32, ptr, ptr, ptr }
%struct.agxbuf = type { %union.anon }
%union.anon = type { %struct.anon }
%struct.anon = type { ptr, i64, i64, [7 x i8], i8 }
%struct.Exid_s = type { %struct._dtlink_s, i64, i64, i64, i64, i64, ptr, ptr, i64, [32 x i8] }
%struct._dtlink_s = type { ptr, %union.anon.0 }
%union.anon.0 = type { ptr }
%struct.anon.3 = type { ptr, ptr, ptr }
%struct.anon.10 = type { ptr, ptr, ptr }

@.str.79 = private unnamed_addr constant [39 x i8] c"invalid first argument to sub operator\00", align 1
@.str.80 = private unnamed_addr constant [40 x i8] c"invalid second argument to sub operator\00", align 1
@.str.81 = private unnamed_addr constant [39 x i8] c"invalid third argument to sub operator\00", align 1
@.str.82 = private unnamed_addr constant [35 x i8] c"too many arguments to sub operator\00", align 1

; Function Attrs: nounwind uwtable
define ptr @exnewnode(ptr noundef %0, i32 noundef %1, i32 noundef %2, i32 noundef %3, ptr noundef %4, ptr noundef %5) #0 {
  %7 = alloca ptr, align 8
  %8 = alloca i32, align 4
  %9 = alloca i32, align 4
  %10 = alloca i32, align 4
  %11 = alloca ptr, align 8
  %12 = alloca ptr, align 8
  %13 = alloca ptr, align 8
  %14 = alloca %struct.Exnode_s, align 8
  store ptr %0, ptr %7, align 8
  store i32 %1, ptr %8, align 4
  store i32 %2, ptr %9, align 4
  store i32 %3, ptr %10, align 4
  store ptr %4, ptr %11, align 8
  store ptr %5, ptr %12, align 8
  %15 = load ptr, ptr %7, align 8
  %16 = getelementptr inbounds %struct.Expr_s, ptr %15, i32 0, i32 3
  %17 = load ptr, ptr %16, align 8
  %18 = call ptr @vmalloc(ptr noundef %17, i64 noundef 72)
  store ptr %18, ptr %13, align 8
  %19 = load ptr, ptr %13, align 8
  call void @llvm.memset.p0.i64(ptr align 8 %14, i8 0, i64 72, i1 false)
  call void @llvm.memcpy.p0.p0.i64(ptr align 8 %19, ptr align 8 %14, i64 72, i1 false)
  %20 = load i32, ptr %8, align 4
  %21 = load ptr, ptr %13, align 8
  %22 = getelementptr inbounds %struct.Exnode_s, ptr %21, i32 0, i32 1
  store i32 %20, ptr %22, align 4
  %23 = load i32, ptr %10, align 4
  %24 = load ptr, ptr %13, align 8
  %25 = getelementptr inbounds %struct.Exnode_s, ptr %24, i32 0, i32 0
  store i32 %23, ptr %25, align 8
  %26 = load i32, ptr %9, align 4
  %27 = load ptr, ptr %13, align 8
  %28 = getelementptr inbounds %struct.Exnode_s, ptr %27, i32 0, i32 2
  store i32 %26, ptr %28, align 8
  %29 = load ptr, ptr %13, align 8
  %30 = getelementptr inbounds %struct.Exnode_s, ptr %29, i32 0, i32 3
  store ptr null, ptr %30, align 8
  %31 = load ptr, ptr %11, align 8
  %32 = load ptr, ptr %13, align 8
  %33 = getelementptr inbounds %struct.Exnode_s, ptr %32, i32 0, i32 5
  %34 = getelementptr inbounds %struct.anon.3, ptr %33, i32 0, i32 0
  store ptr %31, ptr %34, align 8
  %35 = load ptr, ptr %12, align 8
  %36 = load ptr, ptr %13, align 8
  %37 = getelementptr inbounds %struct.Exnode_s, ptr %36, i32 0, i32 5
  %38 = getelementptr inbounds %struct.anon.3, ptr %37, i32 0, i32 1
  store ptr %35, ptr %38, align 8
  %39 = load ptr, ptr %13, align 8
  ret ptr %39
}

; Function Attrs: nounwind uwtable
define internal ptr @extract(ptr noundef %0, ptr noundef %1, i32 noundef %2) #0 {
  %4 = alloca ptr, align 8
  %5 = alloca ptr, align 8
  %6 = alloca ptr, align 8
  %7 = alloca i32, align 4
  %8 = alloca ptr, align 8
  %9 = alloca ptr, align 8
  store ptr %0, ptr %5, align 8
  store ptr %1, ptr %6, align 8
  store i32 %2, ptr %7, align 4
  %10 = load ptr, ptr %6, align 8
  %11 = load ptr, ptr %10, align 8
  store ptr %11, ptr %8, align 8
  %12 = load ptr, ptr %8, align 8
  %13 = icmp ne ptr %12, null
  br i1 %13, label %14, label %23

14:                                               ; preds = %3
  %15 = load i32, ptr %7, align 4
  %16 = load ptr, ptr %8, align 8
  %17 = getelementptr inbounds %struct.Exnode_s, ptr %16, i32 0, i32 5
  %18 = getelementptr inbounds %struct.anon.3, ptr %17, i32 0, i32 0
  %19 = load ptr, ptr %18, align 8
  %20 = getelementptr inbounds %struct.Exnode_s, ptr %19, i32 0, i32 0
  %21 = load i32, ptr %20, align 8
  %22 = icmp ne i32 %15, %21
  br i1 %22, label %23, label %24

23:                                               ; preds = %14, %3
  store ptr null, ptr %4, align 8
  br label %43

24:                                               ; preds = %14
  %25 = load ptr, ptr %8, align 8
  %26 = getelementptr inbounds %struct.Exnode_s, ptr %25, i32 0, i32 5
  %27 = getelementptr inbounds %struct.anon.3, ptr %26, i32 0, i32 1
  %28 = load ptr, ptr %27, align 8
  %29 = load ptr, ptr %6, align 8
  store ptr %28, ptr %29, align 8
  %30 = load ptr, ptr %8, align 8
  %31 = getelementptr inbounds %struct.Exnode_s, ptr %30, i32 0, i32 5
  %32 = getelementptr inbounds %struct.anon.3, ptr %31, i32 0, i32 0
  %33 = load ptr, ptr %32, align 8
  store ptr %33, ptr %9, align 8
  %34 = load ptr, ptr %8, align 8
  %35 = getelementptr inbounds %struct.Exnode_s, ptr %34, i32 0, i32 5
  %36 = getelementptr inbounds %struct.anon.3, ptr %35, i32 0, i32 1
  store ptr null, ptr %36, align 8
  %37 = load ptr, ptr %8, align 8
  %38 = getelementptr inbounds %struct.Exnode_s, ptr %37, i32 0, i32 5
  %39 = getelementptr inbounds %struct.anon.3, ptr %38, i32 0, i32 0
  store ptr null, ptr %39, align 8
  %40 = load ptr, ptr %5, align 8
  %41 = load ptr, ptr %8, align 8
  call void @exfreenode(ptr noundef %40, ptr noundef %41)
  %42 = load ptr, ptr %9, align 8
  store ptr %42, ptr %4, align 8
  br label %43

43:                                               ; preds = %24, %23
  %44 = load ptr, ptr %4, align 8
  ret ptr %44
}

; Function Attrs: nounwind uwtable
define internal ptr @exnewsub(ptr noundef %0, ptr noundef %1, i32 noundef %2) #0 {
  %4 = alloca ptr, align 8
  %5 = alloca ptr, align 8
  %6 = alloca i32, align 4
  %7 = alloca ptr, align 8
  %8 = alloca ptr, align 8
  %9 = alloca ptr, align 8
  %10 = alloca ptr, align 8
  store ptr %0, ptr %4, align 8
  store ptr %1, ptr %5, align 8
  store i32 %2, ptr %6, align 4
  store ptr null, ptr %10, align 8
  %11 = load ptr, ptr %4, align 8
  %12 = call ptr @extract(ptr noundef %11, ptr noundef %5, i32 noundef 263)
  store ptr %12, ptr %7, align 8
  %13 = load ptr, ptr %7, align 8
  %14 = icmp ne ptr %13, null
  br i1 %14, label %16, label %15

15:                                               ; preds = %3
  call void (ptr, ...) @exerror(ptr noundef @.str.79)
  br label %16

16:                                               ; preds = %15, %3
  %17 = load ptr, ptr %4, align 8
  %18 = call ptr @extract(ptr noundef %17, ptr noundef %5, i32 noundef 263)
  store ptr %18, ptr %8, align 8
  %19 = load ptr, ptr %8, align 8
  %20 = icmp ne ptr %19, null
  br i1 %20, label %22, label %21

21:                                               ; preds = %16
  call void (ptr, ...) @exerror(ptr noundef @.str.80)
  br label %22

22:                                               ; preds = %21, %16
  %23 = load ptr, ptr %5, align 8
  %24 = icmp ne ptr %23, null
  br i1 %24, label %25, label %32

25:                                               ; preds = %22
  %26 = load ptr, ptr %4, align 8
  %27 = call ptr @extract(ptr noundef %26, ptr noundef %5, i32 noundef 263)
  store ptr %27, ptr %9, align 8
  %28 = load ptr, ptr %9, align 8
  %29 = icmp ne ptr %28, null
  br i1 %29, label %31, label %30

30:                                               ; preds = %25
  call void (ptr, ...) @exerror(ptr noundef @.str.81)
  br label %31

31:                                               ; preds = %30, %25
  br label %33

32:                                               ; preds = %22
  store ptr null, ptr %9, align 8
  br label %33

33:                                               ; preds = %32, %31
  %34 = load ptr, ptr %5, align 8
  %35 = icmp ne ptr %34, null
  br i1 %35, label %36, label %37

36:                                               ; preds = %33
  call void (ptr, ...) @exerror(ptr noundef @.str.82)
  br label %37

37:                                               ; preds = %36, %33
  %38 = load ptr, ptr %4, align 8
  %39 = load i32, ptr %6, align 4
  %40 = call ptr @exnewnode(ptr noundef %38, i32 noundef %39, i32 noundef 0, i32 noundef 263, ptr noundef null, ptr noundef null)
  store ptr %40, ptr %10, align 8
  %41 = load ptr, ptr %7, align 8
  %42 = load ptr, ptr %10, align 8
  %43 = getelementptr inbounds %struct.Exnode_s, ptr %42, i32 0, i32 5
  %44 = getelementptr inbounds %struct.anon.10, ptr %43, i32 0, i32 0
  store ptr %41, ptr %44, align 8
  %45 = load ptr, ptr %8, align 8
  %46 = load ptr, ptr %10, align 8
  %47 = getelementptr inbounds %struct.Exnode_s, ptr %46, i32 0, i32 5
  %48 = getelementptr inbounds %struct.anon.10, ptr %47, i32 0, i32 1
  store ptr %45, ptr %48, align 8
  %49 = load ptr, ptr %9, align 8
  %50 = load ptr, ptr %10, align 8
  %51 = getelementptr inbounds %struct.Exnode_s, ptr %50, i32 0, i32 5
  %52 = getelementptr inbounds %struct.anon.10, ptr %51, i32 0, i32 2
  store ptr %49, ptr %52, align 8
  %53 = load ptr, ptr %10, align 8
  ret ptr %53
}