; Function Attrs: nounwind uwtable
define internal fastcc noundef ptr @exnewsub(ptr noundef %0, ptr noundef %1, i32 noundef range(i32 280, 303) %2) unnamed_addr #0 {
  %.not.i = icmp eq ptr %1, null
  br i1 %.not.i, label %10, label %4

4:                                                ; preds = %3
  %5 = getelementptr inbounds nuw i8, ptr %1, i64 32
  %6 = load ptr, ptr %5, align 8
  %7 = load i32, ptr %6, align 8
  %.not13.i = icmp eq i32 %7, 263
  br i1 %.not13.i, label %extract.exit, label %10

extract.exit:                                     ; preds = %4
  %8 = getelementptr inbounds nuw i8, ptr %1, i64 40
  %9 = load ptr, ptr %8, align 8
  tail call void @llvm.memset.p0.i64(ptr noundef nonnull align 8 dereferenceable(16) %5, i8 0, i64 16, i1 false)
  tail call void @exfreenode(ptr noundef %0, ptr noundef nonnull %1)
  br label %11

10:                                               ; preds = %4, %3
  tail call void (ptr, ...) @exerror(ptr noundef nonnull @.str.79) #22
  br label %11

11:                                               ; preds = %extract.exit, %10
  %.0.i37 = phi ptr [ null, %10 ], [ %6, %extract.exit ]
  %.135 = phi ptr [ %1, %10 ], [ %9, %extract.exit ]
  %.not.i19 = icmp eq ptr %.135, null
  br i1 %.not.i19, label %18, label %12

12:                                               ; preds = %11
  %13 = getelementptr inbounds nuw i8, ptr %.135, i64 32
  %14 = load ptr, ptr %13, align 8
  %15 = load i32, ptr %14, align 8
  %.not13.i20 = icmp eq i32 %15, 263
  br i1 %.not13.i20, label %extract.exit22, label %18

extract.exit22:                                   ; preds = %12
  %16 = getelementptr inbounds nuw i8, ptr %.135, i64 40
  %17 = load ptr, ptr %16, align 8
  tail call void @llvm.memset.p0.i64(ptr noundef nonnull align 8 dereferenceable(16) %13, i8 0, i64 16, i1 false)
  tail call void @exfreenode(ptr noundef %0, ptr noundef nonnull %.135)
  br label %19

18:                                               ; preds = %12, %11
  tail call void (ptr, ...) @exerror(ptr noundef nonnull @.str.80) #22
  br label %19

19:                                               ; preds = %extract.exit22, %18
  %.0.i2144 = phi ptr [ null, %18 ], [ %14, %extract.exit22 ]
  %.242 = phi ptr [ %.135, %18 ], [ %17, %extract.exit22 ]
  %.not16 = icmp eq ptr %.242, null
  br i1 %.not16, label %.thread, label %20

20:                                               ; preds = %19
  %21 = getelementptr inbounds nuw i8, ptr %.242, i64 32
  %22 = load ptr, ptr %21, align 8
  %23 = load i32, ptr %22, align 8
  %.not13.i24 = icmp eq i32 %23, 263
  br i1 %.not13.i24, label %24, label %.thread54

.thread54:                                        ; preds = %20
  tail call void (ptr, ...) @exerror(ptr noundef nonnull @.str.81) #22
  br label %27

24:                                               ; preds = %20
  %25 = getelementptr inbounds nuw i8, ptr %.242, i64 40
  %26 = load ptr, ptr %25, align 8
  tail call void @llvm.memset.p0.i64(ptr noundef nonnull align 8 dereferenceable(16) %21, i8 0, i64 16, i1 false)
  tail call void @exfreenode(ptr noundef %0, ptr noundef nonnull %.242)
  %.not18 = icmp eq ptr %26, null
  br i1 %.not18, label %.thread, label %27

27:                                               ; preds = %.thread54, %24
  %.058 = phi ptr [ null, %.thread54 ], [ %22, %24 ]
  tail call void (ptr, ...) @exerror(ptr noundef nonnull @.str.82) #22
  br label %.thread

.thread:                                          ; preds = %19, %27, %24
  %.053 = phi ptr [ %.058, %27 ], [ %22, %24 ], [ null, %19 ]
  %28 = getelementptr inbounds nuw i8, ptr %0, i64 96
  %29 = load ptr, ptr %28, align 8
  %30 = tail call ptr @vmalloc(ptr noundef %29, i64 noundef 72) #22
  %31 = getelementptr inbounds nuw i8, ptr %30, i64 8
  tail call void @llvm.memset.p0.i64(ptr noundef nonnull align 8 dereferenceable(64) %31, i8 0, i64 64, i1 false)
  %32 = getelementptr inbounds nuw i8, ptr %30, i64 4
  store i32 %2, ptr %32, align 4
  store i32 263, ptr %30, align 8
  %33 = getelementptr inbounds nuw i8, ptr %30, i64 32
  %34 = getelementptr inbounds nuw i8, ptr %30, i64 40
  store ptr %.0.i37, ptr %33, align 8
  store ptr %.0.i2144, ptr %34, align 8
  %35 = getelementptr inbounds nuw i8, ptr %30, i64 48
  store ptr %.053, ptr %35, align 8
  ret ptr %30
}